target datalayout = "e-m:e-p270:32:32-p271:32:32-p272:64:64-i64:64-i128:128-f80:128-n8:16:32:64-S128"
target triple = "x86_64-pc-linux-gnu"

%struct.OSQPSolver = type { ptr, ptr, ptr, ptr }
%struct.OSQPWorkspace_ = type { ptr, ptr, ptr, ptr, ptr, ptr, ptr, ptr, ptr, ptr, ptr, ptr, ptr, ptr, ptr, ptr, ptr, ptr, ptr, ptr, ptr, ptr, ptr, ptr, ptr, ptr, double, double, double, ptr, i64, i64, i64, i64, ptr }
%struct.OSQPSettings = type { i64, i32, i64, i64, i64, i64, i64, i64, double, i64, double, double, i64, i64, double, i32, i64, i64, double, double, i64, double, double, double, double, i64, i64, double, double, i64 }
%struct.linsys_solver = type { i32, ptr, ptr, ptr, ptr, ptr, ptr, ptr, ptr, i64 }

@__func__.osqp_update_settings = private unnamed_addr constant [21 x i8] c"osqp_update_settings\00", align 1

; Function Attrs: nounwind uwtable
define i64 @osqp_update_settings(ptr noundef %0, ptr noundef %1) #0 {
  %3 = alloca i64, align 8
  %4 = alloca ptr, align 8
  %5 = alloca ptr, align 8
  %6 = alloca ptr, align 8
  store ptr %0, ptr %4, align 8
  store ptr %1, ptr %5, align 8
  %7 = load ptr, ptr %4, align 8
  %8 = getelementptr inbounds %struct.OSQPSolver, ptr %7, i32 0, i32 0
  %9 = load ptr, ptr %8, align 8
  store ptr %9, ptr %6, align 8
  %10 = load ptr, ptr %4, align 8
  %11 = icmp ne ptr %10, null
  br i1 %11, label %12, label %17

12:                                               ; preds = %2
  %13 = load ptr, ptr %4, align 8
  %14 = getelementptr inbounds %struct.OSQPSolver, ptr %13, i32 0, i32 3
  %15 = load ptr, ptr %14, align 8
  %16 = icmp ne ptr %15, null
  br i1 %16, label %19, label %17

17:                                               ; preds = %12, %2
  %18 = call i64 @_osqp_error(i32 noundef 6, ptr noundef @__func__.osqp_update_settings)
  store i64 %18, ptr %3, align 8
  br label %134

19:                                               ; preds = %12
  %20 = load ptr, ptr %5, align 8
  %21 = call i64 @validate_settings(ptr noundef %20, i64 noundef 0)
  %22 = icmp ne i64 %21, 0
  br i1 %22, label %23, label %25

23:                                               ; preds = %19
  %24 = call i64 @_osqp_error(i32 noundef 2, ptr noundef @__func__.osqp_update_settings)
  store i64 %24, ptr %3, align 8
  br label %134

25:                                               ; preds = %19
  %26 = load ptr, ptr %5, align 8
  %27 = getelementptr inbounds %struct.OSQPSettings, ptr %26, i32 0, i32 4
  %28 = load i64, ptr %27, align 8
  %29 = load ptr, ptr %6, align 8
  %30 = getelementptr inbounds %struct.OSQPSettings, ptr %29, i32 0, i32 4
  store i64 %28, ptr %30, align 8
  %31 = load ptr, ptr %5, align 8
  %32 = getelementptr inbounds %struct.OSQPSettings, ptr %31, i32 0, i32 3
  %33 = load i64, ptr %32, align 8
  %34 = load ptr, ptr %6, align 8
  %35 = getelementptr inbounds %struct.OSQPSettings, ptr %34, i32 0, i32 3
  store i64 %33, ptr %35, align 8
  %36 = load ptr, ptr %5, align 8
  %37 = getelementptr inbounds %struct.OSQPSettings, ptr %36, i32 0, i32 5
  %38 = load i64, ptr %37, align 8
  %39 = load ptr, ptr %6, align 8
  %40 = getelementptr inbounds %struct.OSQPSettings, ptr %39, i32 0, i32 5
  store i64 %38, ptr %40, align 8
  %41 = load ptr, ptr %5, align 8
  %42 = getelementptr inbounds %struct.OSQPSettings, ptr %41, i32 0, i32 7
  %43 = load i64, ptr %42, align 8
  %44 = load ptr, ptr %6, align 8
  %45 = getelementptr inbounds %struct.OSQPSettings, ptr %44, i32 0, i32 7
  store i64 %43, ptr %45, align 8
  %46 = load ptr, ptr %5, align 8
  %47 = getelementptr inbounds %struct.OSQPSettings, ptr %46, i32 0, i32 11
  %48 = load double, ptr %47, align 8
  %49 = load ptr, ptr %6, align 8
  %50 = getelementptr inbounds %struct.OSQPSettings, ptr %49, i32 0, i32 11
  store double %48, ptr %50, align 8
  %51 = load ptr, ptr %5, align 8
  %52 = getelementptr inbounds %struct.OSQPSettings, ptr %51, i32 0, i32 12
  %53 = load i64, ptr %52, align 8
  %54 = load ptr, ptr %6, align 8
  %55 = getelementptr inbounds %struct.OSQPSettings, ptr %54, i32 0, i32 12
  store i64 %53, ptr %55, align 8
  %56 = load ptr, ptr %5, align 8
  %57 = getelementptr inbounds %struct.OSQPSettings, ptr %56, i32 0, i32 13
  %58 = load i64, ptr %57, align 8
  %59 = load ptr, ptr %6, align 8
  %60 = getelementptr inbounds %struct.OSQPSettings, ptr %59, i32 0, i32 13
  store i64 %58, ptr %60, align 8
  %61 = load ptr, ptr %5, align 8
  %62 = getelementptr inbounds %struct.OSQPSettings, ptr %61, i32 0, i32 14
  %63 = load double, ptr %62, align 8
  %64 = load ptr, ptr %6, align 8
  %65 = getelementptr inbounds %struct.OSQPSettings, ptr %64, i32 0, i32 14
  store double %63, ptr %65, align 8
  %66 = load ptr, ptr %5, align 8
  %67 = getelementptr inbounds %struct.OSQPSettings, ptr %66, i32 0, i32 15
  %68 = load i32, ptr %67, align 8
  %69 = load ptr, ptr %6, align 8
  %70 = getelementptr inbounds %struct.OSQPSettings, ptr %69, i32 0, i32 15
  store i32 %68, ptr %70, align 8
  %71 = load ptr, ptr %5, align 8
  %72 = getelementptr inbounds %struct.OSQPSettings, ptr %71, i32 0, i32 20
  %73 = load i64, ptr %72, align 8
  %74 = load ptr, ptr %6, align 8
  %75 = getelementptr inbounds %struct.OSQPSettings, ptr %74, i32 0, i32 20
  store i64 %73, ptr %75, align 8
  %76 = load ptr, ptr %5, align 8
  %77 = getelementptr inbounds %struct.OSQPSettings, ptr %76, i32 0, i32 21
  %78 = load double, ptr %77, align 8
  %79 = load ptr, ptr %6, align 8
  %80 = getelementptr inbounds %struct.OSQPSettings, ptr %79, i32 0, i32 21
  store double %78, ptr %80, align 8
  %81 = load ptr, ptr %5, align 8
  %82 = getelementptr inbounds %struct.OSQPSettings, ptr %81, i32 0, i32 22
  %83 = load double, ptr %82, align 8
  %84 = load ptr, ptr %6, align 8
  %85 = getelementptr inbounds %struct.OSQPSettings, ptr %84, i32 0, i32 22
  store double %83, ptr %85, align 8
  %86 = load ptr, ptr %5, align 8
  %87 = getelementptr inbounds %struct.OSQPSettings, ptr %86, i32 0, i32 23
  %88 = load double, ptr %87, align 8
  %89 = load ptr, ptr %6, align 8
  %90 = getelementptr inbounds %struct.OSQPSettings, ptr %89, i32 0, i32 23
  store double %88, ptr %90, align 8
  %91 = load ptr, ptr %5, align 8
  %92 = getelementptr inbounds %struct.OSQPSettings, ptr %91, i32 0, i32 24
  %93 = load double, ptr %92, align 8
  %94 = load ptr, ptr %6, align 8
  %95 = getelementptr inbounds %struct.OSQPSettings, ptr %94, i32 0, i32 24
  store double %93, ptr %95, align 8
  %96 = load ptr, ptr %5, align 8
  %97 = getelementptr inbounds %struct.OSQPSettings, ptr %96, i32 0, i32 25
  %98 = load i64, ptr %97, align 8
  %99 = load ptr, ptr %6, align 8
  %100 = getelementptr inbounds %struct.OSQPSettings, ptr %99, i32 0, i32 25
  store i64 %98, ptr %100, align 8
  %101 = load ptr, ptr %5, align 8
  %102 = getelementptr inbounds %struct.OSQPSettings, ptr %101, i32 0, i32 26
  %103 = load i64, ptr %102, align 8
  %104 = load ptr, ptr %6, align 8
  %105 = getelementptr inbounds %struct.OSQPSettings, ptr %104, i32 0, i32 26
  store i64 %103, ptr %105, align 8
  %106 = load ptr, ptr %5, align 8
  %107 = getelementptr inbounds %struct.OSQPSettings, ptr %106, i32 0, i32 27
  %108 = load double, ptr %107, align 8
  %109 = load ptr, ptr %6, align 8
  %110 = getelementptr inbounds %struct.OSQPSettings, ptr %109, i32 0, i32 27
  store double %108, ptr %110, align 8
  %111 = load ptr, ptr %5, align 8
  %112 = getelementptr inbounds %struct.OSQPSettings, ptr %111, i32 0, i32 28
  %113 = load double, ptr %112, align 8
  %114 = load ptr, ptr %6, align 8
  %115 = getelementptr inbounds %struct.OSQPSettings, ptr %114, i32 0, i32 28
  store double %113, ptr %115, align 8
  %116 = load ptr, ptr %5, align 8
  %117 = getelementptr inbounds %struct.OSQPSettings, ptr %116, i32 0, i32 29
  %118 = load i64, ptr %117, align 8
  %119 = load ptr, ptr %6, align 8
  %120 = getelementptr inbounds %struct.OSQPSettings, ptr %119, i32 0, i32 29
  store i64 %118, ptr %120, align 8
  %121 = load ptr, ptr %4, align 8
  %122 = getelementptr inbounds %struct.OSQPSolver, ptr %121, i32 0, i32 3
  %123 = load ptr, ptr %122, align 8
  %124 = getelementptr inbounds %struct.OSQPWorkspace_, ptr %123, i32 0, i32 1
  %125 = load ptr, ptr %124, align 8
  %126 = getelementptr inbounds %struct.linsys_solver, ptr %125, i32 0, i32 3
  %127 = load ptr, ptr %126, align 8
  %128 = load ptr, ptr %4, align 8
  %129 = getelementptr inbounds %struct.OSQPSolver, ptr %128, i32 0, i32 3
  %130 = load ptr, ptr %129, align 8
  %131 = getelementptr inbounds %struct.OSQPWorkspace_, ptr %130, i32 0, i32 1
  %132 = load ptr, ptr %131, align 8
  %133 = load ptr, ptr %6, align 8
  call void %127(ptr noundef %132, ptr noundef %133)
  store i64 0, ptr %3, align 8
  br label %134

134:                                              ; preds = %25, %23, %17
  %135 = load i64, ptr %3, align 8
  ret i64 %135
}