; Function Attrs: nounwind uwtable
define i64 @osqp_update_settings(ptr nocapture noundef readonly %0, ptr noundef %1) local_unnamed_addr #0 {
  %3 = load ptr, ptr %0, align 8
  %4 = getelementptr inbounds i8, ptr %0, i64 24
  %5 = load ptr, ptr %4, align 8
  %.not = icmp eq ptr %5, null
  br i1 %.not, label %6, label %8

6:                                                ; preds = %2
  %7 = tail call i64 @_osqp_error(i32 noundef 6, ptr noundef nonnull @__func__.osqp_update_settings) #15
  br label %75

8:                                                ; preds = %2
  %9 = tail call i64 @validate_settings(ptr noundef %1, i64 noundef 0) #15
  %.not45 = icmp eq i64 %9, 0
  br i1 %.not45, label %12, label %10

10:                                               ; preds = %8
  %11 = tail call i64 @_osqp_error(i32 noundef 2, ptr noundef nonnull @__func__.osqp_update_settings) #15
  br label %75

12:                                               ; preds = %8
  %13 = getelementptr inbounds i8, ptr %1, i64 32
  %14 = load i64, ptr %13, align 8
  %15 = getelementptr inbounds i8, ptr %3, i64 32
  store i64 %14, ptr %15, align 8
  %16 = getelementptr inbounds i8, ptr %1, i64 24
  %17 = load i64, ptr %16, align 8
  %18 = getelementptr inbounds i8, ptr %3, i64 24
  store i64 %17, ptr %18, align 8
  %19 = getelementptr inbounds i8, ptr %1, i64 40
  %20 = load i64, ptr %19, align 8
  %21 = getelementptr inbounds i8, ptr %3, i64 40
  store i64 %20, ptr %21, align 8
  %22 = getelementptr inbounds i8, ptr %1, i64 56
  %23 = load i64, ptr %22, align 8
  %24 = getelementptr inbounds i8, ptr %3, i64 56
  store i64 %23, ptr %24, align 8
  %25 = getelementptr inbounds i8, ptr %1, i64 88
  %26 = load double, ptr %25, align 8
  %27 = getelementptr inbounds i8, ptr %3, i64 88
  store double %26, ptr %27, align 8
  %28 = getelementptr inbounds i8, ptr %1, i64 96
  %29 = load i64, ptr %28, align 8
  %30 = getelementptr inbounds i8, ptr %3, i64 96
  store i64 %29, ptr %30, align 8
  %31 = getelementptr inbounds i8, ptr %1, i64 104
  %32 = load i64, ptr %31, align 8
  %33 = getelementptr inbounds i8, ptr %3, i64 104
  store i64 %32, ptr %33, align 8
  %34 = getelementptr inbounds i8, ptr %1, i64 112
  %35 = load double, ptr %34, align 8
  %36 = getelementptr inbounds i8, ptr %3, i64 112
  store double %35, ptr %36, align 8
  %37 = getelementptr inbounds i8, ptr %1, i64 120
  %38 = load i32, ptr %37, align 8
  %39 = getelementptr inbounds i8, ptr %3, i64 120
  store i32 %38, ptr %39, align 8
  %40 = getelementptr inbounds i8, ptr %1, i64 160
  %41 = load i64, ptr %40, align 8
  %42 = getelementptr inbounds i8, ptr %3, i64 160
  store i64 %41, ptr %42, align 8
  %43 = getelementptr inbounds i8, ptr %1, i64 168
  %44 = load double, ptr %43, align 8
  %45 = getelementptr inbounds i8, ptr %3, i64 168
  store double %44, ptr %45, align 8
  %46 = getelementptr inbounds i8, ptr %1, i64 176
  %47 = load double, ptr %46, align 8
  %48 = getelementptr inbounds i8, ptr %3, i64 176
  store double %47, ptr %48, align 8
  %49 = getelementptr inbounds i8, ptr %1, i64 184
  %50 = load double, ptr %49, align 8
  %51 = getelementptr inbounds i8, ptr %3, i64 184
  store double %50, ptr %51, align 8
  %52 = getelementptr inbounds i8, ptr %1, i64 192
  %53 = load double, ptr %52, align 8
  %54 = getelementptr inbounds i8, ptr %3, i64 192
  store double %53, ptr %54, align 8
  %55 = getelementptr inbounds i8, ptr %1, i64 200
  %56 = load i64, ptr %55, align 8
  %57 = getelementptr inbounds i8, ptr %3, i64 200
  store i64 %56, ptr %57, align 8
  %58 = getelementptr inbounds i8, ptr %1, i64 208
  %59 = load i64, ptr %58, align 8
  %60 = getelementptr inbounds i8, ptr %3, i64 208
  store i64 %59, ptr %60, align 8
  %61 = getelementptr inbounds i8, ptr %1, i64 216
  %62 = load double, ptr %61, align 8
  %63 = getelementptr inbounds i8, ptr %3, i64 216
  store double %62, ptr %63, align 8
  %64 = getelementptr inbounds i8, ptr %1, i64 224
  %65 = load double, ptr %64, align 8
  %66 = getelementptr inbounds i8, ptr %3, i64 224
  store double %65, ptr %66, align 8
  %67 = getelementptr inbounds i8, ptr %1, i64 232
  %68 = load i64, ptr %67, align 8
  %69 = getelementptr inbounds i8, ptr %3, i64 232
  store i64 %68, ptr %69, align 8
  %70 = load ptr, ptr %4, align 8
  %71 = getelementptr inbounds i8, ptr %70, i64 8
  %72 = load ptr, ptr %71, align 8
  %73 = getelementptr inbounds i8, ptr %72, i64 24
  %74 = load ptr, ptr %73, align 8
  tail call void %74(ptr noundef %72, ptr noundef %3) #15
  br label %75

75:                                               ; preds = %12, %10, %6
  %.0 = phi i64 [ %11, %10 ], [ 0, %12 ], [ %7, %6 ]
  ret i64 %.0
}